ccopy_reg
_reconstructor
p0
(csklearn.linear_model.theil_sen
TheilSenRegressor
p1
c__builtin__
object
p2
Ntp3
Rp4
(dp5
S'n_jobs'
p6
I1
sS'coef_'
p7
cnumpy.core.multiarray
_reconstruct
p8
(cnumpy
ndarray
p9
(I0
tp10
S'b'
p11
tp12
Rp13
(I1
(I1
tp14
cnumpy
dtype
p15
(S'f8'
p16
I0
I1
tp17
Rp18
(I3
S'<'
p19
NNNI-1
I-1
I0
tp20
bI00
S'k+D\n1\x1d\x00@'
p21
tp22
bsS'n_subsamples'
p23
NsS'fit_intercept'
p24
I01
sS'max_iter'
p25
I300
sS'n_iter_'
p26
I50
sS'breakdown_'
p27
F0.23431457505076203
sS'random_state'
p28
NsS'tol'
p29
F0.001
sS'copy_X'
p30
I01
sS'max_subpopulation'
p31
I10000
sS'intercept_'
p32
cnumpy.core.multiarray
scalar
p33
(g18
S'\x0c\x06^\xfd\x08\x14\xa9\xbf'
p34
tp35
Rp36
sS'n_subpopulation_'
p37
I10
sS'verbose'
p38
I00
sb.